target datalayout = "e-m:e-p270:32:32-p271:32:32-p272:64:64-i64:64-i128:128-f80:128-n8:16:32:64-S128"
target triple = "x86_64-pc-linux-gnu"

%struct.code = type { i8, i8, i16 }
%struct.z_stream_s = type { ptr, i32, i64, ptr, i32, i64, ptr, ptr, ptr, ptr, ptr, i32, i64, i64 }
%struct.inflate_state = type { i32, i32, i32, i32, i32, i32, i64, i64, ptr, i32, i32, i32, i32, ptr, i64, i32, i32, i32, i32, ptr, ptr, i32, i32, i32, i32, i32, i32, ptr, [320 x i16], [288 x i16], [1444 x %struct.code], i32, i32, i32 }

; Function Attrs: nounwind uwtable
define i32 @inflateGetDictionary(ptr noundef %0, ptr noundef %1, ptr noundef %2) #0 {
  %4 = alloca i32, align 4
  %5 = alloca ptr, align 8
  %6 = alloca ptr, align 8
  %7 = alloca ptr, align 8
  %8 = alloca ptr, align 8
  %9 = alloca i32, align 4
  store ptr %0, ptr %5, align 8, !tbaa !3
  store ptr %1, ptr %6, align 8, !tbaa !44
  store ptr %2, ptr %7, align 8, !tbaa !112
  call void @llvm.lifetime.start.p0(i64 8, ptr %8) #4
  %10 = load ptr, ptr %5, align 8, !tbaa !3
  %11 = icmp eq ptr %10, null
  br i1 %11, label %17, label %12

12:                                               ; preds = %3
  %13 = load ptr, ptr %5, align 8, !tbaa !3
  %14 = getelementptr inbounds nuw %struct.z_stream_s, ptr %13, i32 0, i32 7
  %15 = load ptr, ptr %14, align 8, !tbaa !8
  %16 = icmp eq ptr %15, null
  br i1 %16, label %17, label %18

17:                                               ; preds = %12, %3
  store i32 -2, ptr %4, align 4
  store i32 1, ptr %9, align 4
  br label %75

18:                                               ; preds = %12
  %19 = load ptr, ptr %5, align 8, !tbaa !3
  %20 = getelementptr inbounds nuw %struct.z_stream_s, ptr %19, i32 0, i32 7
  %21 = load ptr, ptr %20, align 8, !tbaa !8
  store ptr %21, ptr %8, align 8, !tbaa !14
  %22 = load ptr, ptr %8, align 8, !tbaa !14
  %23 = getelementptr inbounds nuw %struct.inflate_state, ptr %22, i32 0, i32 11
  %24 = load i32, ptr %23, align 8, !tbaa !37
  %25 = icmp ne i32 %24, 0
  br i1 %25, label %26, label %66

26:                                               ; preds = %18
  %27 = load ptr, ptr %6, align 8, !tbaa !44
  %28 = icmp ne ptr %27, null
  br i1 %28, label %29, label %66

29:                                               ; preds = %26
  %30 = load ptr, ptr %6, align 8, !tbaa !44
  %31 = load ptr, ptr %8, align 8, !tbaa !14
  %32 = getelementptr inbounds nuw %struct.inflate_state, ptr %31, i32 0, i32 13
  %33 = load ptr, ptr %32, align 8, !tbaa !40
  %34 = load ptr, ptr %8, align 8, !tbaa !14
  %35 = getelementptr inbounds nuw %struct.inflate_state, ptr %34, i32 0, i32 12
  %36 = load i32, ptr %35, align 4, !tbaa !38
  %37 = zext i32 %36 to i64
  %38 = getelementptr inbounds nuw i8, ptr %33, i64 %37
  %39 = load ptr, ptr %8, align 8, !tbaa !14
  %40 = getelementptr inbounds nuw %struct.inflate_state, ptr %39, i32 0, i32 11
  %41 = load i32, ptr %40, align 8, !tbaa !37
  %42 = load ptr, ptr %8, align 8, !tbaa !14
  %43 = getelementptr inbounds nuw %struct.inflate_state, ptr %42, i32 0, i32 12
  %44 = load i32, ptr %43, align 4, !tbaa !38
  %45 = sub i32 %41, %44
  %46 = zext i32 %45 to i64
  call void @llvm.memcpy.p0.p0.i64(ptr align 1 %30, ptr align 1 %38, i64 %46, i1 false)
  %47 = load ptr, ptr %6, align 8, !tbaa !44
  %48 = load ptr, ptr %8, align 8, !tbaa !14
  %49 = getelementptr inbounds nuw %struct.inflate_state, ptr %48, i32 0, i32 11
  %50 = load i32, ptr %49, align 8, !tbaa !37
  %51 = zext i32 %50 to i64
  %52 = getelementptr inbounds nuw i8, ptr %47, i64 %51
  %53 = load ptr, ptr %8, align 8, !tbaa !14
  %54 = getelementptr inbounds nuw %struct.inflate_state, ptr %53, i32 0, i32 12
  %55 = load i32, ptr %54, align 4, !tbaa !38
  %56 = zext i32 %55 to i64
  %57 = sub i64 0, %56
  %58 = getelementptr inbounds i8, ptr %52, i64 %57
  %59 = load ptr, ptr %8, align 8, !tbaa !14
  %60 = getelementptr inbounds nuw %struct.inflate_state, ptr %59, i32 0, i32 13
  %61 = load ptr, ptr %60, align 8, !tbaa !40
  %62 = load ptr, ptr %8, align 8, !tbaa !14
  %63 = getelementptr inbounds nuw %struct.inflate_state, ptr %62, i32 0, i32 12
  %64 = load i32, ptr %63, align 4, !tbaa !38
  %65 = zext i32 %64 to i64
  call void @llvm.memcpy.p0.p0.i64(ptr align 1 %58, ptr align 1 %61, i64 %65, i1 false)
  br label %66

66:                                               ; preds = %29, %26, %18
  %67 = load ptr, ptr %7, align 8, !tbaa !112
  %68 = icmp ne ptr %67, null
  br i1 %68, label %69, label %74

69:                                               ; preds = %66
  %70 = load ptr, ptr %8, align 8, !tbaa !14
  %71 = getelementptr inbounds nuw %struct.inflate_state, ptr %70, i32 0, i32 11
  %72 = load i32, ptr %71, align 8, !tbaa !37
  %73 = load ptr, ptr %7, align 8, !tbaa !112
  store i32 %72, ptr %73, align 4, !tbaa !39
  br label %74

74:                                               ; preds = %69, %66
  store i32 0, ptr %4, align 4
  store i32 1, ptr %9, align 4
  br label %75

75:                                               ; preds = %74, %17
  call void @llvm.lifetime.end.p0(i64 8, ptr %8) #4
  %76 = load i32, ptr %4, align 4
  ret i32 %76
}