; Function Attrs: mustprogress nofree norecurse nosync nounwind willreturn memory(readwrite, inaccessiblemem: none) uwtable
define range(i32 -2, 1) i32 @inflateGetDictionary(ptr noundef readonly %0, ptr noundef writeonly %1, ptr noundef writeonly %2) local_unnamed_addr #0 {
  %4 = icmp eq ptr %0, null
  br i1 %4, label %34, label %5

5:                                                ; preds = %3
  %6 = getelementptr inbounds nuw i8, ptr %0, i64 56
  %7 = load ptr, ptr %6, align 8, !tbaa !3
  %8 = icmp eq ptr %7, null
  br i1 %8, label %34, label %9

9:                                                ; preds = %5
  %10 = getelementptr inbounds nuw i8, ptr %7, i64 56
  %11 = load i32, ptr %10, align 8, !tbaa !31
  %12 = icmp ne i32 %11, 0
  %13 = icmp ne ptr %1, null
  %or.cond = and i1 %13, %12
  br i1 %or.cond, label %14, label %31

14:                                               ; preds = %9
  %15 = getelementptr inbounds nuw i8, ptr %7, i64 64
  %16 = load ptr, ptr %15, align 8, !tbaa !33
  %17 = getelementptr inbounds nuw i8, ptr %7, i64 60
  %18 = load i32, ptr %17, align 4, !tbaa !32
  %19 = zext i32 %18 to i64
  %20 = getelementptr inbounds nuw i8, ptr %16, i64 %19
  %21 = sub i32 %11, %18
  %22 = zext i32 %21 to i64
  tail call void @llvm.memcpy.p0.p0.i64(ptr nonnull align 1 %1, ptr align 1 %20, i64 %22, i1 false)
  %23 = load i32, ptr %10, align 8, !tbaa !31
  %24 = zext i32 %23 to i64
  %25 = getelementptr inbounds nuw i8, ptr %1, i64 %24
  %26 = load i32, ptr %17, align 4, !tbaa !32
  %27 = zext i32 %26 to i64
  %28 = sub nsw i64 0, %27
  %29 = getelementptr inbounds i8, ptr %25, i64 %28
  %30 = load ptr, ptr %15, align 8, !tbaa !33
  tail call void @llvm.memcpy.p0.p0.i64(ptr nonnull align 1 %29, ptr align 1 %30, i64 %27, i1 false)
  br label %31

31:                                               ; preds = %14, %9
  %.not = icmp eq ptr %2, null
  br i1 %.not, label %34, label %32

32:                                               ; preds = %31
  %33 = load i32, ptr %10, align 8, !tbaa !31
  store i32 %33, ptr %2, align 4, !tbaa !98
  br label %34

34:                                               ; preds = %31, %32, %3, %5
  %.0 = phi i32 [ -2, %5 ], [ -2, %3 ], [ 0, %32 ], [ 0, %31 ]
  ret i32 %.0
}